target datalayout = "e-m:e-p270:32:32-p271:32:32-p272:64:64-i64:64-i128:128-f80:128-n8:16:32:64-S128"
target triple = "x86_64-pc-linux-gnu"

%struct.URLContext = type { ptr, ptr, ptr, ptr, i32, i32, i32, i32, %struct.AVIOInterruptCB, i64, ptr, ptr, i32 }
%struct.AVIOInterruptCB = type { ptr, ptr }
%struct.CryptoContext = type { ptr, ptr, [4112 x i8], [4112 x i8], ptr, i32, i32, i32, i64, i32, i32, ptr, i32, ptr, i32, ptr, i32, ptr, i32, ptr, i32, ptr, i32, ptr, ptr, ptr, i32, [16 x i8], i32 }

; Function Attrs: inlinehint nounwind uwtable
define internal i32 @ffurl_read(ptr noundef %0, ptr noundef %1, i32 noundef %2) #4 {
  %4 = alloca ptr, align 8
  %5 = alloca ptr, align 8
  %6 = alloca i32, align 4
  store ptr %0, ptr %4, align 8, !tbaa !4
  store ptr %1, ptr %5, align 8, !tbaa !9
  store i32 %2, ptr %6, align 4, !tbaa !11
  %7 = load ptr, ptr %4, align 8, !tbaa !4
  %8 = load ptr, ptr %5, align 8, !tbaa !9
  %9 = load i32, ptr %6, align 4, !tbaa !11
  %10 = call i32 @ffurl_read2(ptr noundef %7, ptr noundef %8, i32 noundef %9)
  ret i32 %10
}

; Function Attrs: nounwind uwtable
define internal i32 @crypto_read(ptr noundef %0, ptr noundef %1, i32 noundef %2) #0 {
  %4 = alloca i32, align 4
  %5 = alloca ptr, align 8
  %6 = alloca ptr, align 8
  %7 = alloca i32, align 4
  %8 = alloca ptr, align 8
  %9 = alloca i32, align 4
  %10 = alloca i32, align 4
  %11 = alloca i32, align 4
  %12 = alloca i32, align 4
  store ptr %0, ptr %5, align 8, !tbaa !4
  store ptr %1, ptr %6, align 8, !tbaa !9
  store i32 %2, ptr %7, align 4, !tbaa !11
  call void @llvm.lifetime.start.p0(i64 8, ptr %8) #6
  %13 = load ptr, ptr %5, align 8, !tbaa !4
  %14 = getelementptr inbounds nuw %struct.URLContext, ptr %13, i32 0, i32 2
  %15 = load ptr, ptr %14, align 8, !tbaa !16
  store ptr %15, ptr %8, align 8, !tbaa !22
  call void @llvm.lifetime.start.p0(i64 4, ptr %9) #6
  br label %16

16:                                               ; preds = %213, %3
  %17 = load ptr, ptr %8, align 8, !tbaa !22
  %18 = getelementptr inbounds nuw %struct.CryptoContext, ptr %17, i32 0, i32 7
  %19 = load i32, ptr %18, align 8, !tbaa !39
  %20 = icmp sgt i32 %19, 0
  br i1 %20, label %21, label %61

21:                                               ; preds = %16
  %22 = load i32, ptr %7, align 4, !tbaa !11
  %23 = load ptr, ptr %8, align 8, !tbaa !22
  %24 = getelementptr inbounds nuw %struct.CryptoContext, ptr %23, i32 0, i32 7
  %25 = load i32, ptr %24, align 8, !tbaa !39
  %26 = icmp sgt i32 %22, %25
  br i1 %26, label %27, label %31

27:                                               ; preds = %21
  %28 = load ptr, ptr %8, align 8, !tbaa !22
  %29 = getelementptr inbounds nuw %struct.CryptoContext, ptr %28, i32 0, i32 7
  %30 = load i32, ptr %29, align 8, !tbaa !39
  br label %33

31:                                               ; preds = %21
  %32 = load i32, ptr %7, align 4, !tbaa !11
  br label %33

33:                                               ; preds = %31, %27
  %34 = phi i32 [ %30, %27 ], [ %32, %31 ]
  store i32 %34, ptr %7, align 4, !tbaa !11
  %35 = load ptr, ptr %6, align 8, !tbaa !9
  %36 = load ptr, ptr %8, align 8, !tbaa !22
  %37 = getelementptr inbounds nuw %struct.CryptoContext, ptr %36, i32 0, i32 4
  %38 = load ptr, ptr %37, align 8, !tbaa !40
  %39 = load i32, ptr %7, align 4, !tbaa !11
  %40 = sext i32 %39 to i64
  call void @llvm.memcpy.p0.p0.i64(ptr align 1 %35, ptr align 1 %38, i64 %40, i1 false)
  %41 = load i32, ptr %7, align 4, !tbaa !11
  %42 = load ptr, ptr %8, align 8, !tbaa !22
  %43 = getelementptr inbounds nuw %struct.CryptoContext, ptr %42, i32 0, i32 4
  %44 = load ptr, ptr %43, align 8, !tbaa !40
  %45 = sext i32 %41 to i64
  %46 = getelementptr inbounds i8, ptr %44, i64 %45
  store ptr %46, ptr %43, align 8, !tbaa !40
  %47 = load i32, ptr %7, align 4, !tbaa !11
  %48 = load ptr, ptr %8, align 8, !tbaa !22
  %49 = getelementptr inbounds nuw %struct.CryptoContext, ptr %48, i32 0, i32 7
  %50 = load i32, ptr %49, align 8, !tbaa !39
  %51 = sub nsw i32 %50, %47
  store i32 %51, ptr %49, align 8, !tbaa !39
  %52 = load ptr, ptr %8, align 8, !tbaa !22
  %53 = getelementptr inbounds nuw %struct.CryptoContext, ptr %52, i32 0, i32 8
  %54 = load i64, ptr %53, align 8, !tbaa !41
  %55 = load i32, ptr %7, align 4, !tbaa !11
  %56 = sext i32 %55 to i64
  %57 = add nsw i64 %54, %56
  %58 = load ptr, ptr %8, align 8, !tbaa !22
  %59 = getelementptr inbounds nuw %struct.CryptoContext, ptr %58, i32 0, i32 8
  store i64 %57, ptr %59, align 8, !tbaa !41
  %60 = load i32, ptr %7, align 4, !tbaa !11
  store i32 %60, ptr %4, align 4
  store i32 1, ptr %10, align 4
  br label %214

61:                                               ; preds = %16
  br label %62

62:                                               ; preds = %103, %61
  %63 = load ptr, ptr %8, align 8, !tbaa !22
  %64 = getelementptr inbounds nuw %struct.CryptoContext, ptr %63, i32 0, i32 5
  %65 = load i32, ptr %64, align 8, !tbaa !42
  %66 = load ptr, ptr %8, align 8, !tbaa !22
  %67 = getelementptr inbounds nuw %struct.CryptoContext, ptr %66, i32 0, i32 6
  %68 = load i32, ptr %67, align 4, !tbaa !43
  %69 = sub nsw i32 %65, %68
  %70 = icmp slt i32 %69, 32
  br i1 %70, label %71, label %104

71:                                               ; preds = %62
  call void @llvm.lifetime.start.p0(i64 4, ptr %11) #6
  %72 = load ptr, ptr %8, align 8, !tbaa !22
  %73 = getelementptr inbounds nuw %struct.CryptoContext, ptr %72, i32 0, i32 1
  %74 = load ptr, ptr %73, align 8, !tbaa !35
  %75 = load ptr, ptr %8, align 8, !tbaa !22
  %76 = getelementptr inbounds nuw %struct.CryptoContext, ptr %75, i32 0, i32 2
  %77 = getelementptr inbounds [4112 x i8], ptr %76, i64 0, i64 0
  %78 = load ptr, ptr %8, align 8, !tbaa !22
  %79 = getelementptr inbounds nuw %struct.CryptoContext, ptr %78, i32 0, i32 5
  %80 = load i32, ptr %79, align 8, !tbaa !42
  %81 = sext i32 %80 to i64
  %82 = getelementptr inbounds i8, ptr %77, i64 %81
  %83 = load ptr, ptr %8, align 8, !tbaa !22
  %84 = getelementptr inbounds nuw %struct.CryptoContext, ptr %83, i32 0, i32 5
  %85 = load i32, ptr %84, align 8, !tbaa !42
  %86 = sext i32 %85 to i64
  %87 = sub i64 4112, %86
  %88 = trunc i64 %87 to i32
  %89 = call i32 @ffurl_read(ptr noundef %74, ptr noundef %82, i32 noundef %88)
  store i32 %89, ptr %11, align 4, !tbaa !11
  %90 = load i32, ptr %11, align 4, !tbaa !11
  %91 = icmp sle i32 %90, 0
  br i1 %91, label %92, label %95

92:                                               ; preds = %71
  %93 = load ptr, ptr %8, align 8, !tbaa !22
  %94 = getelementptr inbounds nuw %struct.CryptoContext, ptr %93, i32 0, i32 10
  store i32 1, ptr %94, align 4, !tbaa !44
  store i32 4, ptr %10, align 4
  br label %101

95:                                               ; preds = %71
  %96 = load i32, ptr %11, align 4, !tbaa !11
  %97 = load ptr, ptr %8, align 8, !tbaa !22
  %98 = getelementptr inbounds nuw %struct.CryptoContext, ptr %97, i32 0, i32 5
  %99 = load i32, ptr %98, align 8, !tbaa !42
  %100 = add nsw i32 %99, %96
  store i32 %100, ptr %98, align 8, !tbaa !42
  store i32 0, ptr %10, align 4
  br label %101

101:                                              ; preds = %95, %92
  call void @llvm.lifetime.end.p0(i64 4, ptr %11) #6
  %102 = load i32, ptr %10, align 4
  switch i32 %102, label %216 [
    i32 0, label %103
    i32 4, label %104
  ]

103:                                              ; preds = %101
  br label %62, !llvm.loop !45

104:                                              ; preds = %101, %62
  %105 = load ptr, ptr %8, align 8, !tbaa !22
  %106 = getelementptr inbounds nuw %struct.CryptoContext, ptr %105, i32 0, i32 5
  %107 = load i32, ptr %106, align 8, !tbaa !42
  %108 = load ptr, ptr %8, align 8, !tbaa !22
  %109 = getelementptr inbounds nuw %struct.CryptoContext, ptr %108, i32 0, i32 6
  %110 = load i32, ptr %109, align 4, !tbaa !43
  %111 = sub nsw i32 %107, %110
  %112 = sdiv i32 %111, 16
  store i32 %112, ptr %9, align 4, !tbaa !11
  %113 = load i32, ptr %9, align 4, !tbaa !11
  %114 = icmp ne i32 %113, 0
  br i1 %114, label %116, label %115

115:                                              ; preds = %104
  store i32 -541478725, ptr %4, align 4
  store i32 1, ptr %10, align 4
  br label %214

116:                                              ; preds = %104
  %117 = load ptr, ptr %8, align 8, !tbaa !22
  %118 = getelementptr inbounds nuw %struct.CryptoContext, ptr %117, i32 0, i32 10
  %119 = load i32, ptr %118, align 4, !tbaa !44
  %120 = icmp ne i32 %119, 0
  br i1 %120, label %124, label %121

121:                                              ; preds = %116
  %122 = load i32, ptr %9, align 4, !tbaa !11
  %123 = add nsw i32 %122, -1
  store i32 %123, ptr %9, align 4, !tbaa !11
  br label %124

124:                                              ; preds = %121, %116
  %125 = load ptr, ptr %8, align 8, !tbaa !22
  %126 = getelementptr inbounds nuw %struct.CryptoContext, ptr %125, i32 0, i32 23
  %127 = load ptr, ptr %126, align 8, !tbaa !33
  %128 = load ptr, ptr %8, align 8, !tbaa !22
  %129 = getelementptr inbounds nuw %struct.CryptoContext, ptr %128, i32 0, i32 3
  %130 = getelementptr inbounds [4112 x i8], ptr %129, i64 0, i64 0
  %131 = load ptr, ptr %8, align 8, !tbaa !22
  %132 = getelementptr inbounds nuw %struct.CryptoContext, ptr %131, i32 0, i32 2
  %133 = getelementptr inbounds [4112 x i8], ptr %132, i64 0, i64 0
  %134 = load ptr, ptr %8, align 8, !tbaa !22
  %135 = getelementptr inbounds nuw %struct.CryptoContext, ptr %134, i32 0, i32 6
  %136 = load i32, ptr %135, align 4, !tbaa !43
  %137 = sext i32 %136 to i64
  %138 = getelementptr inbounds i8, ptr %133, i64 %137
  %139 = load i32, ptr %9, align 4, !tbaa !11
  %140 = load ptr, ptr %8, align 8, !tbaa !22
  %141 = getelementptr inbounds nuw %struct.CryptoContext, ptr %140, i32 0, i32 17
  %142 = load ptr, ptr %141, align 8, !tbaa !47
  call void @av_aes_crypt(ptr noundef %127, ptr noundef %130, ptr noundef %138, i32 noundef %139, ptr noundef %142, i32 noundef 1)
  %143 = load i32, ptr %9, align 4, !tbaa !11
  %144 = mul nsw i32 16, %143
  %145 = load ptr, ptr %8, align 8, !tbaa !22
  %146 = getelementptr inbounds nuw %struct.CryptoContext, ptr %145, i32 0, i32 7
  store i32 %144, ptr %146, align 8, !tbaa !39
  %147 = load ptr, ptr %8, align 8, !tbaa !22
  %148 = getelementptr inbounds nuw %struct.CryptoContext, ptr %147, i32 0, i32 3
  %149 = getelementptr inbounds [4112 x i8], ptr %148, i64 0, i64 0
  %150 = load ptr, ptr %8, align 8, !tbaa !22
  %151 = getelementptr inbounds nuw %struct.CryptoContext, ptr %150, i32 0, i32 4
  store ptr %149, ptr %151, align 8, !tbaa !40
  %152 = load i32, ptr %9, align 4, !tbaa !11
  %153 = mul nsw i32 16, %152
  %154 = load ptr, ptr %8, align 8, !tbaa !22
  %155 = getelementptr inbounds nuw %struct.CryptoContext, ptr %154, i32 0, i32 6
  %156 = load i32, ptr %155, align 4, !tbaa !43
  %157 = add nsw i32 %156, %153
  store i32 %157, ptr %155, align 4, !tbaa !43
  %158 = load ptr, ptr %8, align 8, !tbaa !22
  %159 = getelementptr inbounds nuw %struct.CryptoContext, ptr %158, i32 0, i32 6
  %160 = load i32, ptr %159, align 4, !tbaa !43
  %161 = sext i32 %160 to i64
  %162 = icmp uge i64 %161, 2056
  br i1 %162, label %163, label %192

163:                                              ; preds = %124
  %164 = load ptr, ptr %8, align 8, !tbaa !22
  %165 = getelementptr inbounds nuw %struct.CryptoContext, ptr %164, i32 0, i32 2
  %166 = getelementptr inbounds [4112 x i8], ptr %165, i64 0, i64 0
  %167 = load ptr, ptr %8, align 8, !tbaa !22
  %168 = getelementptr inbounds nuw %struct.CryptoContext, ptr %167, i32 0, i32 2
  %169 = getelementptr inbounds [4112 x i8], ptr %168, i64 0, i64 0
  %170 = load ptr, ptr %8, align 8, !tbaa !22
  %171 = getelementptr inbounds nuw %struct.CryptoContext, ptr %170, i32 0, i32 6
  %172 = load i32, ptr %171, align 4, !tbaa !43
  %173 = sext i32 %172 to i64
  %174 = getelementptr inbounds i8, ptr %169, i64 %173
  %175 = load ptr, ptr %8, align 8, !tbaa !22
  %176 = getelementptr inbounds nuw %struct.CryptoContext, ptr %175, i32 0, i32 5
  %177 = load i32, ptr %176, align 8, !tbaa !42
  %178 = load ptr, ptr %8, align 8, !tbaa !22
  %179 = getelementptr inbounds nuw %struct.CryptoContext, ptr %178, i32 0, i32 6
  %180 = load i32, ptr %179, align 4, !tbaa !43
  %181 = sub nsw i32 %177, %180
  %182 = sext i32 %181 to i64
  call void @llvm.memmove.p0.p0.i64(ptr align 8 %166, ptr align 1 %174, i64 %182, i1 false)
  %183 = load ptr, ptr %8, align 8, !tbaa !22
  %184 = getelementptr inbounds nuw %struct.CryptoContext, ptr %183, i32 0, i32 6
  %185 = load i32, ptr %184, align 4, !tbaa !43
  %186 = load ptr, ptr %8, align 8, !tbaa !22
  %187 = getelementptr inbounds nuw %struct.CryptoContext, ptr %186, i32 0, i32 5
  %188 = load i32, ptr %187, align 8, !tbaa !42
  %189 = sub nsw i32 %188, %185
  store i32 %189, ptr %187, align 8, !tbaa !42
  %190 = load ptr, ptr %8, align 8, !tbaa !22
  %191 = getelementptr inbounds nuw %struct.CryptoContext, ptr %190, i32 0, i32 6
  store i32 0, ptr %191, align 4, !tbaa !43
  br label %192

192:                                              ; preds = %163, %124
  %193 = load ptr, ptr %8, align 8, !tbaa !22
  %194 = getelementptr inbounds nuw %struct.CryptoContext, ptr %193, i32 0, i32 10
  %195 = load i32, ptr %194, align 4, !tbaa !44
  %196 = icmp ne i32 %195, 0
  br i1 %196, label %197, label %213

197:                                              ; preds = %192
  call void @llvm.lifetime.start.p0(i64 4, ptr %12) #6
  %198 = load ptr, ptr %8, align 8, !tbaa !22
  %199 = getelementptr inbounds nuw %struct.CryptoContext, ptr %198, i32 0, i32 3
  %200 = load ptr, ptr %8, align 8, !tbaa !22
  %201 = getelementptr inbounds nuw %struct.CryptoContext, ptr %200, i32 0, i32 7
  %202 = load i32, ptr %201, align 8, !tbaa !39
  %203 = sub nsw i32 %202, 1
  %204 = sext i32 %203 to i64
  %205 = getelementptr inbounds [4112 x i8], ptr %199, i64 0, i64 %204
  %206 = load i8, ptr %205, align 1, !tbaa !48
  %207 = zext i8 %206 to i32
  store i32 %207, ptr %12, align 4, !tbaa !11
  %208 = load i32, ptr %12, align 4, !tbaa !11
  %209 = load ptr, ptr %8, align 8, !tbaa !22
  %210 = getelementptr inbounds nuw %struct.CryptoContext, ptr %209, i32 0, i32 7
  %211 = load i32, ptr %210, align 8, !tbaa !39
  %212 = sub nsw i32 %211, %208
  store i32 %212, ptr %210, align 8, !tbaa !39
  call void @llvm.lifetime.end.p0(i64 4, ptr %12) #6
  br label %213

213:                                              ; preds = %197, %192
  br label %16

214:                                              ; preds = %115, %33
  call void @llvm.lifetime.end.p0(i64 4, ptr %9) #6
  call void @llvm.lifetime.end.p0(i64 8, ptr %8) #6
  %215 = load i32, ptr %4, align 4
  ret i32 %215

216:                                              ; preds = %101
  unreachable
}