; Function Attrs: nounwind uwtable
define internal i32 @crypto_read(ptr noundef readonly captures(none) %0, ptr noundef writeonly captures(none) %1, i32 noundef %2) #0 {
  %4 = getelementptr inbounds nuw i8, ptr %0, i64 16
  %5 = load ptr, ptr %4, align 8, !tbaa !4
  %6 = getelementptr inbounds nuw i8, ptr %5, i64 8256
  %7 = load i32, ptr %6, align 8, !tbaa !33
  %8 = icmp sgt i32 %7, 0
  br i1 %8, label %._crit_edge, label %.preheader.lr.ph

.preheader.lr.ph:                                 ; preds = %3
  %9 = getelementptr inbounds nuw i8, ptr %5, i64 8248
  %10 = getelementptr inbounds nuw i8, ptr %5, i64 8252
  %11 = getelementptr inbounds nuw i8, ptr %5, i64 8
  %12 = getelementptr inbounds nuw i8, ptr %5, i64 16
  %13 = getelementptr inbounds nuw i8, ptr %5, i64 8276
  %14 = getelementptr inbounds nuw i8, ptr %5, i64 8376
  %15 = getelementptr inbounds nuw i8, ptr %5, i64 4128
  %16 = getelementptr inbounds nuw i8, ptr %5, i64 8328
  %17 = getelementptr inbounds nuw i8, ptr %5, i64 8240
  %.pre = load i32, ptr %10, align 4, !tbaa !34
  br label %.preheader

.preheader:                                       ; preds = %.preheader.lr.ph, %77
  %18 = phi i32 [ %.pre, %.preheader.lr.ph ], [ %68, %77 ]
  %19 = load i32, ptr %9, align 8, !tbaa !35
  %20 = sub nsw i32 %19, %18
  %21 = icmp slt i32 %20, 32
  br i1 %21, label %.lr.ph, label %.loopexit

._crit_edge:                                      ; preds = %77, %3
  %.lcssa74 = phi i32 [ %7, %3 ], [ %78, %77 ]
  %. = tail call i32 @llvm.smin.i32(i32 %2, i32 %.lcssa74)
  %22 = getelementptr inbounds nuw i8, ptr %5, i64 8240
  %23 = load ptr, ptr %22, align 8, !tbaa !36
  %24 = sext i32 %. to i64
  tail call void @llvm.memcpy.p0.p0.i64(ptr align 1 %1, ptr align 1 %23, i64 %24, i1 false)
  %25 = load ptr, ptr %22, align 8, !tbaa !36
  %26 = getelementptr inbounds i8, ptr %25, i64 %24
  store ptr %26, ptr %22, align 8, !tbaa !36
  %27 = load i32, ptr %6, align 8, !tbaa !33
  %28 = sub nsw i32 %27, %.
  store i32 %28, ptr %6, align 8, !tbaa !33
  %29 = getelementptr inbounds nuw i8, ptr %5, i64 8264
  %30 = load i64, ptr %29, align 8, !tbaa !37
  %31 = add nsw i64 %30, %24
  store i64 %31, ptr %29, align 8, !tbaa !37
  br label %.loopexit70

.lr.ph:                                           ; preds = %.preheader, %39
  %32 = phi i32 [ %41, %39 ], [ %19, %.preheader ]
  %33 = load ptr, ptr %11, align 8, !tbaa !29
  %34 = sext i32 %32 to i64
  %35 = getelementptr inbounds i8, ptr %12, i64 %34
  %36 = sub i32 4112, %32
  %37 = tail call i32 @ffurl_read2(ptr noundef %33, ptr noundef nonnull %35, i32 noundef %36) #6
  %38 = icmp slt i32 %37, 1
  br i1 %38, label %.thread, label %39

.thread:                                          ; preds = %.lr.ph
  store i32 1, ptr %13, align 4, !tbaa !38
  %.pre79 = load i32, ptr %9, align 8, !tbaa !35
  %.pre80 = load i32, ptr %10, align 4, !tbaa !34
  %.pre83 = sub nsw i32 %.pre79, %.pre80
  br label %.loopexit

39:                                               ; preds = %.lr.ph
  %40 = load i32, ptr %9, align 8, !tbaa !35
  %41 = add nsw i32 %40, %37
  store i32 %41, ptr %9, align 8, !tbaa !35
  %42 = load i32, ptr %10, align 4, !tbaa !34
  %43 = sub nsw i32 %41, %42
  %44 = icmp slt i32 %43, 32
  br i1 %44, label %.lr.ph, label %.loopexit

.loopexit:                                        ; preds = %39, %.preheader, %.thread
  %.pre-phi = phi i32 [ %20, %.preheader ], [ %.pre83, %.thread ], [ %43, %39 ]
  %45 = phi i32 [ %18, %.preheader ], [ %.pre80, %.thread ], [ %42, %39 ]
  %.off = add i32 %.pre-phi, 15
  %.not = icmp ult i32 %.off, 31
  br i1 %.not, label %.loopexit70, label %46

46:                                               ; preds = %.loopexit
  %47 = sdiv i32 %.pre-phi, 16
  %48 = load i32, ptr %13, align 4, !tbaa !38
  %.not66 = icmp eq i32 %48, 0
  %49 = sext i1 %.not66 to i32
  %spec.select = add nsw i32 %47, %49
  %50 = load ptr, ptr %14, align 8, !tbaa !27
  %51 = sext i32 %45 to i64
  %52 = getelementptr inbounds i8, ptr %12, i64 %51
  %53 = load ptr, ptr %16, align 8, !tbaa !39
  tail call void @av_aes_crypt(ptr noundef %50, ptr noundef nonnull %15, ptr noundef nonnull %52, i32 noundef %spec.select, ptr noundef %53, i32 noundef 1) #6
  %54 = shl nsw i32 %spec.select, 4
  store i32 %54, ptr %6, align 8, !tbaa !33
  store ptr %15, ptr %17, align 8, !tbaa !36
  %55 = load i32, ptr %10, align 4, !tbaa !34
  %56 = add nsw i32 %55, %54
  store i32 %56, ptr %10, align 4, !tbaa !34
  %57 = icmp ugt i32 %56, 2055
  br i1 %57, label %58, label %67

58:                                               ; preds = %46
  %59 = sext i32 %56 to i64
  %60 = getelementptr inbounds i8, ptr %12, i64 %59
  %61 = load i32, ptr %9, align 8, !tbaa !35
  %62 = sub nsw i32 %61, %56
  %63 = sext i32 %62 to i64
  tail call void @llvm.memmove.p0.p0.i64(ptr nonnull align 8 %12, ptr nonnull align 1 %60, i64 %63, i1 false)
  %64 = load i32, ptr %10, align 4, !tbaa !34
  %65 = load i32, ptr %9, align 8, !tbaa !35
  %66 = sub nsw i32 %65, %64
  store i32 %66, ptr %9, align 8, !tbaa !35
  store i32 0, ptr %10, align 4, !tbaa !34
  %.pre81.pre = load i32, ptr %6, align 8, !tbaa !33
  br label %67

67:                                               ; preds = %58, %46
  %.pre81 = phi i32 [ %.pre81.pre, %58 ], [ %54, %46 ]
  %68 = phi i32 [ 0, %58 ], [ %56, %46 ]
  %69 = load i32, ptr %13, align 4, !tbaa !38
  %.not67 = icmp eq i32 %69, 0
  br i1 %.not67, label %77, label %70

70:                                               ; preds = %67
  %71 = add nsw i32 %.pre81, -1
  %72 = sext i32 %71 to i64
  %73 = getelementptr inbounds [4112 x i8], ptr %15, i64 0, i64 %72
  %74 = load i8, ptr %73, align 1, !tbaa !40
  %75 = zext i8 %74 to i32
  %76 = sub nsw i32 %.pre81, %75
  store i32 %76, ptr %6, align 8, !tbaa !33
  br label %77

77:                                               ; preds = %70, %67
  %78 = phi i32 [ %76, %70 ], [ %.pre81, %67 ]
  %79 = icmp sgt i32 %78, 0
  br i1 %79, label %._crit_edge, label %.preheader

.loopexit70:                                      ; preds = %.loopexit, %._crit_edge
  %.0 = phi i32 [ %., %._crit_edge ], [ -541478725, %.loopexit ]
  ret i32 %.0
}